Certificate:
    Data:
        Version: 3 (0x2)
        Serial Number: 4660 (0x1234)
    Signature Algorithm: sha256WithRSAEncryption
        Issuer: C=NZ, ST=NZ, L=NZ, O=MCD, OU=MCD/emailAddress=MCD@gmail.com
        Validity
            Not Before: Oct 18 22:47:20 2018 GMT
            Not After : Oct 18 22:47:20 2019 GMT
        Subject: C=NZ, ST=NZ, L=NZ, O=PKL, OU=PKL, CN=PKILabServer.com/emailAddress=pkl@gmail.com
        Subject Public Key Info:
            Public Key Algorithm: rsaEncryption
                Public-Key: (2048 bit)
                Modulus:
                    00:b0:0f:ce:42:e0:2b:5b:4c:3e:46:a0:25:9b:ae:
                    94:26:ab:16:ba:b1:e6:23:a8:64:d1:77:a7:de:2d:
                    45:6d:7a:64:d1:b3:e7:10:01:f5:4f:90:40:ac:92:
                    90:a5:46:8a:c8:2a:48:19:83:31:74:8c:e5:eb:31:
                    eb:31:d5:0a:a4:bc:91:b0:be:9c:5d:49:6f:fc:90:
                    29:8d:e4:b2:74:d9:86:29:47:9d:6f:d6:c8:48:b3:
                    c0:1b:08:80:75:99:dd:ea:a2:03:3d:8f:23:57:7d:
                    0c:26:fb:e8:b3:8d:80:9e:46:44:0c:a5:77:e5:84:
                    ec:1e:2a:24:3e:d9:6b:a3:6c:6f:b8:78:5f:90:ee:
                    74:1a:f9:47:a9:a9:32:89:1a:36:57:b4:ab:92:b3:
                    d9:20:68:02:1b:f2:90:5e:14:91:ce:3e:10:a5:c6:
                    20:d7:d6:e2:1e:31:c4:73:d7:fb:f8:ad:d4:b9:43:
                    b1:2c:5a:ee:5b:d7:bb:5b:4c:24:82:e5:12:11:3b:
                    d3:ce:41:77:48:b7:c2:4c:8f:1f:97:36:46:09:8b:
                    26:a6:e8:18:5a:b2:98:71:6e:6e:b0:03:0c:7b:00:
                    e5:35:ea:9f:8d:e1:49:2c:7f:b5:ba:ba:69:22:b1:
                    ba:a6:45:8b:c8:1c:61:b5:54:7f:1a:8b:ac:38:7a:
                    20:45
                Exponent: 65537 (0x10001)
        X509v3 extensions:
            X509v3 Basic Constraints: 
                CA:FALSE
            Netscape Comment: 
                OpenSSL Generated Certificate
            X509v3 Subject Key Identifier: 
                8F:E4:DC:CD:AA:51:88:B0:34:61:E8:43:CA:E9:F6:6C:5B:83:3B:F8
            X509v3 Authority Key Identifier: 
                keyid:90:17:76:C6:56:34:04:67:C7:44:E1:41:A3:89:86:AF:B4:F0:39:8C

    Signature Algorithm: sha256WithRSAEncryption
         bf:59:65:c1:ff:ae:4a:4e:52:89:b2:19:26:19:10:5e:81:a2:
         35:d2:35:09:68:42:d1:9f:9a:b5:b1:d0:25:a2:f5:b8:8c:62:
         ac:8f:a6:79:21:00:34:30:60:c3:81:c1:cf:e7:e5:ad:e0:51:
         94:8e:62:52:25:5e:bf:ff:7c:f8:ae:5a:88:25:24:f8:3a:8d:
         0f:c4:5d:45:6c:a0:82:91:fe:f6:e3:7e:f2:bd:de:3c:1a:91:
         92:d3:ba:b7:e7:fd:43:3e:bc:5d:b0:04:dd:fc:97:e4:ed:df:
         95:ba:14:97:4f:c6:6b:8f:ec:f9:64:d7:64:b2:c4:e5:c7:ab:
         b9:96:f6:87:6b:5e:d7:fb:09:93:c9:c4:af:c0:41:42:3a:ae:
         95:b9:30:2c:37:02:30:51:19:ea:22:da:e4:38:a5:5d:fc:17:
         44:b6:ff:41:bc:0d:44:b0:22:d9:70:6a:bd:22:e4:bc:8d:c5:
         77:9d:3c:9a:6f:dc:32:8d:ea:c1:d0:97:ce:0a:18:df:a7:30:
         5d:84:11:d7:49:92:30:65:03:62:24:ba:88:34:90:2c:2c:fc:
         05:b3:97:f1:39:be:06:0a:34:f3:ff:ce:89:02:21:81:aa:c4:
         ca:2b:c3:08:01:6c:59:fb:d9:4b:6b:67:06:98:54:03:cb:9c:
         4d:a3:6c:c9
-----BEGIN CERTIFICATE-----
MIID1DCCArygAwIBAgICEjQwDQYJKoZIhvcNAQELBQAwYTELMAkGA1UEBhMCTlox
CzAJBgNVBAgMAk5aMQswCQYDVQQHDAJOWjEMMAoGA1UECgwDTUNEMQwwCgYDVQQL
DANNQ0QxHDAaBgkqhkiG9w0BCQEWDU1DREBnbWFpbC5jb20wHhcNMTgxMDE4MjI0
NzIwWhcNMTkxMDE4MjI0NzIwWjB8MQswCQYDVQQGEwJOWjELMAkGA1UECAwCTlox
CzAJBgNVBAcMAk5aMQwwCgYDVQQKDANQS0wxDDAKBgNVBAsMA1BLTDEZMBcGA1UE
AwwQUEtJTGFiU2VydmVyLmNvbTEcMBoGCSqGSIb3DQEJARYNcGtsQGdtYWlsLmNv
bTCCASIwDQYJKoZIhvcNAQEBBQADggEPADCCAQoCggEBALAPzkLgK1tMPkagJZuu
lCarFrqx5iOoZNF3p94tRW16ZNGz5xAB9U+QQKySkKVGisgqSBmDMXSM5esx6zHV
CqS8kbC+nF1Jb/yQKY3ksnTZhilHnW/WyEizwBsIgHWZ3eqiAz2PI1d9DCb76LON
gJ5GRAyld+WE7B4qJD7Za6Nsb7h4X5DudBr5R6mpMokaNle0q5Kz2SBoAhvykF4U
kc4+EKXGINfW4h4xxHPX+/it1LlDsSxa7lvXu1tMJILlEhE7085Bd0i3wkyPH5c2
RgmLJqboGFqymHFubrADDHsA5TXqn43hSSx/tbq6aSKxuqZFi8gcYbVUfxqLrDh6
IEUCAwEAAaN7MHkwCQYDVR0TBAIwADAsBglghkgBhvhCAQ0EHxYdT3BlblNTTCBH
ZW5lcmF0ZWQgQ2VydGlmaWNhdGUwHQYDVR0OBBYEFI/k3M2qUYiwNGHoQ8rp9mxb
gzv4MB8GA1UdIwQYMBaAFJAXdsZWNARnx0ThQaOJhq+08DmMMA0GCSqGSIb3DQEB
CwUAA4IBAQC/WWXB/65KTlKJshkmGRBegaI10jUJaELRn5q1sdAlovW4jGKsj6Z5
IQA0MGDDgcHP5+Wt4FGUjmJSJV6//3z4rlqIJST4Oo0PxF1FbKCCkf72437yvd48
GpGS07q35/1DPrxdsATd/Jfk7d+VuhSXT8Zrj+z5ZNdkssTlx6u5lvaHa17X+wmT
ycSvwEFCOq6VuTAsNwIwURnqItrkOKVd/BdEtv9BvA1EsCLZcGq9IuS8jcV3nTya
b9wyjerB0JfOChjfpzBdhBHXSZIwZQNiJLqINJAsLPwFs5fxOb4GCjTz/86JAiGB
qsTKK8MIAWxZ+9lLa2cGmFQDy5xNo2zJ
-----END CERTIFICATE-----
